target datalayout = "e-m:e-p270:32:32-p271:32:32-p272:64:64-i64:64-i128:128-f80:128-n8:16:32:64-S128"
target triple = "x86_64-unknown-linux-gnu"

%"struct.std::_Vector_base" = type { %"struct.std::_Vector_base<Assimp::Blender::PointP2T, std::allocator<Assimp::Blender::PointP2T>>::_Vector_impl" }
%"struct.std::_Vector_base<Assimp::Blender::PointP2T, std::allocator<Assimp::Blender::PointP2T>>::_Vector_impl" = type { %"struct.std::_Vector_base<Assimp::Blender::PointP2T, std::allocator<Assimp::Blender::PointP2T>>::_Vector_impl_data" }
%"struct.std::_Vector_base<Assimp::Blender::PointP2T, std::allocator<Assimp::Blender::PointP2T>>::_Vector_impl_data" = type { ptr, ptr, ptr }
%class.aiVector3t = type { float, float, float }
%"struct.std::_Vector_base.7" = type { %"struct.std::_Vector_base<p2t::Point *, std::allocator<p2t::Point *>>::_Vector_impl" }
%"struct.std::_Vector_base<p2t::Point *, std::allocator<p2t::Point *>>::_Vector_impl" = type { %"struct.std::_Vector_base<p2t::Point *, std::allocator<p2t::Point *>>::_Vector_impl_data" }
%"struct.std::_Vector_base<p2t::Point *, std::allocator<p2t::Point *>>::_Vector_impl_data" = type { ptr, ptr, ptr }
%"struct.Assimp::Blender::PointP2T" = type { %class.aiVector3t, %"struct.p2t::Point", i32, i32 }
%"struct.p2t::Point" = type { double, double, %"class.std::vector.16" }
%"class.std::vector.16" = type { %"struct.std::_Vector_base.17" }
%"struct.std::_Vector_base.17" = type { %"struct.std::_Vector_base<p2t::Edge *, std::allocator<p2t::Edge *>>::_Vector_impl" }
%"struct.std::_Vector_base<p2t::Edge *, std::allocator<p2t::Edge *>>::_Vector_impl" = type { %"struct.std::_Vector_base<p2t::Edge *, std::allocator<p2t::Edge *>>::_Vector_impl_data" }
%"struct.std::_Vector_base<p2t::Edge *, std::allocator<p2t::Edge *>>::_Vector_impl_data" = type { ptr, ptr, ptr }

; Function Attrs: mustprogress nounwind uwtable
define linkonce_odr hidden void @_ZNSt12_Destroy_auxILb1EE9__destroyIPPN3p2t5PointEEEvT_S6_(ptr noundef %0, ptr noundef %1) #0 comdat align 2 {
entry:
  %.addr = alloca ptr, align 8
  %.addr1 = alloca ptr, align 8
  store ptr %0, ptr %.addr, align 8
  store ptr %1, ptr %.addr1, align 8
  ret void
}

; Function Attrs: mustprogress uwtable
define linkonce_odr hidden void @_ZSt8_DestroyIPPN3p2t5PointEEvT_S4_(ptr noundef %__first, ptr noundef %__last) #2 comdat {
entry:
  %__first.addr = alloca ptr, align 8
  %__last.addr = alloca ptr, align 8
  store ptr %__first, ptr %__first.addr, align 8
  store ptr %__last, ptr %__last.addr, align 8
  %0 = load ptr, ptr %__first.addr, align 8
  %1 = load ptr, ptr %__last.addr, align 8
  call void @_ZNSt12_Destroy_auxILb1EE9__destroyIPPN3p2t5PointEEEvT_S6_(ptr noundef %0, ptr noundef %1)
  ret void
}

; Function Attrs: noreturn nounwind uwtable
define linkonce_odr hidden void @__clang_call_terminate(ptr noundef %0) #9 comdat {
  %2 = call ptr @__cxa_begin_catch(ptr %0) #14
  call void @_ZSt9terminatev() #13
  unreachable
}

; Function Attrs: mustprogress uwtable
define linkonce_odr hidden void @_ZSt8_DestroyIPPN3p2t5PointES2_EvT_S4_RSaIT0_E(ptr noundef %__first, ptr noundef %__last, ptr noundef nonnull align 1 dereferenceable(1) %0) #2 comdat {
entry:
  %__first.addr = alloca ptr, align 8
  %__last.addr = alloca ptr, align 8
  %.addr = alloca ptr, align 8
  store ptr %__first, ptr %__first.addr, align 8
  store ptr %__last, ptr %__last.addr, align 8
  store ptr %0, ptr %.addr, align 8
  %1 = load ptr, ptr %__first.addr, align 8
  %2 = load ptr, ptr %__last.addr, align 8
  call void @_ZSt8_DestroyIPPN3p2t5PointEEvT_S4_(ptr noundef %1, ptr noundef %2)
  ret void
}

; Function Attrs: mustprogress nounwind uwtable
define linkonce_odr hidden noundef nonnull align 1 dereferenceable(1) ptr @_ZNSt12_Vector_baseIPN3p2t5PointESaIS2_EE19_M_get_Tp_allocatorEv(ptr noundef nonnull align 8 dereferenceable(24) %this) #0 comdat align 2 {
entry:
  %this.addr = alloca ptr, align 8
  store ptr %this, ptr %this.addr, align 8
  %this1 = load ptr, ptr %this.addr, align 8
  %_M_impl = getelementptr inbounds %"struct.std::_Vector_base.7", ptr %this1, i32 0, i32 0
  ret ptr %_M_impl
}

; Function Attrs: mustprogress nounwind uwtable
define linkonce_odr hidden void @_ZNSt6vectorIPN3p2t5PointESaIS2_EE15_M_erase_at_endEPS2_(ptr noundef nonnull align 8 dereferenceable(24) %this, ptr noundef %__pos) #0 comdat align 2 personality ptr @__gxx_personality_v0 {
entry:
  %this.addr = alloca ptr, align 8
  %__pos.addr = alloca ptr, align 8
  %__n = alloca i64, align 8
  store ptr %this, ptr %this.addr, align 8
  store ptr %__pos, ptr %__pos.addr, align 8
  %this1 = load ptr, ptr %this.addr, align 8
  %_M_impl = getelementptr inbounds %"struct.std::_Vector_base.7", ptr %this1, i32 0, i32 0
  %_M_finish = getelementptr inbounds %"struct.std::_Vector_base<p2t::Point *, std::allocator<p2t::Point *>>::_Vector_impl_data", ptr %_M_impl, i32 0, i32 1
  %0 = load ptr, ptr %_M_finish, align 8
  %1 = load ptr, ptr %__pos.addr, align 8
  %sub.ptr.lhs.cast = ptrtoint ptr %0 to i64
  %sub.ptr.rhs.cast = ptrtoint ptr %1 to i64
  %sub.ptr.sub = sub i64 %sub.ptr.lhs.cast, %sub.ptr.rhs.cast
  %sub.ptr.div = sdiv exact i64 %sub.ptr.sub, 8
  store i64 %sub.ptr.div, ptr %__n, align 8
  %2 = load i64, ptr %__n, align 8
  %tobool = icmp ne i64 %2, 0
  br i1 %tobool, label %if.then, label %if.end

if.then:                                          ; preds = %entry
  %3 = load ptr, ptr %__pos.addr, align 8
  %_M_impl2 = getelementptr inbounds %"struct.std::_Vector_base.7", ptr %this1, i32 0, i32 0
  %_M_finish3 = getelementptr inbounds %"struct.std::_Vector_base<p2t::Point *, std::allocator<p2t::Point *>>::_Vector_impl_data", ptr %_M_impl2, i32 0, i32 1
  %4 = load ptr, ptr %_M_finish3, align 8
  %call = call noundef nonnull align 1 dereferenceable(1) ptr @_ZNSt12_Vector_baseIPN3p2t5PointESaIS2_EE19_M_get_Tp_allocatorEv(ptr noundef nonnull align 8 dereferenceable(24) %this1) #14
  invoke void @_ZSt8_DestroyIPPN3p2t5PointES2_EvT_S4_RSaIT0_E(ptr noundef %3, ptr noundef %4, ptr noundef nonnull align 1 dereferenceable(1) %call)
          to label %invoke.cont unwind label %terminate.lpad

invoke.cont:                                      ; preds = %if.then
  %5 = load ptr, ptr %__pos.addr, align 8
  %_M_impl4 = getelementptr inbounds %"struct.std::_Vector_base.7", ptr %this1, i32 0, i32 0
  %_M_finish5 = getelementptr inbounds %"struct.std::_Vector_base<p2t::Point *, std::allocator<p2t::Point *>>::_Vector_impl_data", ptr %_M_impl4, i32 0, i32 1
  store ptr %5, ptr %_M_finish5, align 8
  br label %if.end

if.end:                                           ; preds = %invoke.cont, %entry
  ret void

terminate.lpad:                                   ; preds = %if.then
  %6 = landingpad { ptr, i32 }
          catch ptr null
  %7 = extractvalue { ptr, i32 } %6, 0
  call void @__clang_call_terminate(ptr %7) #13
  unreachable
}

; Function Attrs: mustprogress nounwind uwtable
define linkonce_odr hidden noundef i64 @_ZNKSt6vectorIPN3p2t5PointESaIS2_EE4sizeEv(ptr noundef nonnull align 8 dereferenceable(24) %this) #0 comdat align 2 {
entry:
  %this.addr = alloca ptr, align 8
  store ptr %this, ptr %this.addr, align 8
  %this1 = load ptr, ptr %this.addr, align 8
  %_M_impl = getelementptr inbounds %"struct.std::_Vector_base.7", ptr %this1, i32 0, i32 0
  %_M_finish = getelementptr inbounds %"struct.std::_Vector_base<p2t::Point *, std::allocator<p2t::Point *>>::_Vector_impl_data", ptr %_M_impl, i32 0, i32 1
  %0 = load ptr, ptr %_M_finish, align 8
  %_M_impl2 = getelementptr inbounds %"struct.std::_Vector_base.7", ptr %this1, i32 0, i32 0
  %_M_start = getelementptr inbounds %"struct.std::_Vector_base<p2t::Point *, std::allocator<p2t::Point *>>::_Vector_impl_data", ptr %_M_impl2, i32 0, i32 0
  %1 = load ptr, ptr %_M_start, align 8
  %sub.ptr.lhs.cast = ptrtoint ptr %0 to i64
  %sub.ptr.rhs.cast = ptrtoint ptr %1 to i64
  %sub.ptr.sub = sub i64 %sub.ptr.lhs.cast, %sub.ptr.rhs.cast
  %sub.ptr.div = sdiv exact i64 %sub.ptr.sub, 8
  ret i64 %sub.ptr.div
}

; Function Attrs: mustprogress nounwind uwtable
define linkonce_odr hidden noundef nonnull align 8 dereferenceable(8) ptr @_ZNSt6vectorIPN3p2t5PointESaIS2_EEixEm(ptr noundef nonnull align 8 dereferenceable(24) %this, i64 noundef %__n) #0 comdat align 2 {
entry:
  %this.addr = alloca ptr, align 8
  %__n.addr = alloca i64, align 8
  store ptr %this, ptr %this.addr, align 8
  store i64 %__n, ptr %__n.addr, align 8
  %this1 = load ptr, ptr %this.addr, align 8
  %_M_impl = getelementptr inbounds %"struct.std::_Vector_base.7", ptr %this1, i32 0, i32 0
  %_M_start = getelementptr inbounds %"struct.std::_Vector_base<p2t::Point *, std::allocator<p2t::Point *>>::_Vector_impl_data", ptr %_M_impl, i32 0, i32 0
  %0 = load ptr, ptr %_M_start, align 8
  %1 = load i64, ptr %__n.addr, align 8
  %add.ptr = getelementptr inbounds ptr, ptr %0, i64 %1
  ret ptr %add.ptr
}

; Function Attrs: mustprogress nounwind uwtable
define linkonce_odr hidden noundef nonnull align 8 dereferenceable(64) ptr @_ZNSt6vectorIN6Assimp7Blender8PointP2TESaIS2_EEixEm(ptr noundef nonnull align 8 dereferenceable(24) %this, i64 noundef %__n) #0 comdat align 2 {
entry:
  %this.addr = alloca ptr, align 8
  %__n.addr = alloca i64, align 8
  store ptr %this, ptr %this.addr, align 8
  store i64 %__n, ptr %__n.addr, align 8
  %this1 = load ptr, ptr %this.addr, align 8
  %_M_impl = getelementptr inbounds %"struct.std::_Vector_base", ptr %this1, i32 0, i32 0
  %_M_start = getelementptr inbounds %"struct.std::_Vector_base<Assimp::Blender::PointP2T, std::allocator<Assimp::Blender::PointP2T>>::_Vector_impl_data", ptr %_M_impl, i32 0, i32 0
  %0 = load ptr, ptr %_M_start, align 8
  %1 = load i64, ptr %__n.addr, align 8
  %add.ptr = getelementptr inbounds %"struct.Assimp::Blender::PointP2T", ptr %0, i64 %1
  ret ptr %add.ptr
}

; Function Attrs: mustprogress uwtable
define linkonce_odr hidden void @_ZNSt6vectorIPN3p2t5PointESaIS2_EE6resizeEm(ptr noundef nonnull align 8 dereferenceable(24) %this, i64 noundef %__new_size) #2 comdat align 2 {
entry:
  %this.addr = alloca ptr, align 8
  %__new_size.addr = alloca i64, align 8
  store ptr %this, ptr %this.addr, align 8
  store i64 %__new_size, ptr %__new_size.addr, align 8
  %this1 = load ptr, ptr %this.addr, align 8
  %0 = load i64, ptr %__new_size.addr, align 8
  %call = call noundef i64 @_ZNKSt6vectorIPN3p2t5PointESaIS2_EE4sizeEv(ptr noundef nonnull align 8 dereferenceable(24) %this1) #14
  %cmp = icmp ugt i64 %0, %call
  br i1 %cmp, label %if.then, label %if.else

if.then:                                          ; preds = %entry
  %1 = load i64, ptr %__new_size.addr, align 8
  %call2 = call noundef i64 @_ZNKSt6vectorIPN3p2t5PointESaIS2_EE4sizeEv(ptr noundef nonnull align 8 dereferenceable(24) %this1) #14
  %sub = sub i64 %1, %call2
  call void @_ZNSt6vectorIPN3p2t5PointESaIS2_EE17_M_default_appendEm(ptr noundef nonnull align 8 dereferenceable(24) %this1, i64 noundef %sub)
  br label %if.end6

if.else:                                          ; preds = %entry
  %2 = load i64, ptr %__new_size.addr, align 8
  %call3 = call noundef i64 @_ZNKSt6vectorIPN3p2t5PointESaIS2_EE4sizeEv(ptr noundef nonnull align 8 dereferenceable(24) %this1) #14
  %cmp4 = icmp ult i64 %2, %call3
  br i1 %cmp4, label %if.then5, label %if.end

if.then5:                                         ; preds = %if.else
  %_M_impl = getelementptr inbounds %"struct.std::_Vector_base.7", ptr %this1, i32 0, i32 0
  %_M_start = getelementptr inbounds %"struct.std::_Vector_base<p2t::Point *, std::allocator<p2t::Point *>>::_Vector_impl_data", ptr %_M_impl, i32 0, i32 0
  %3 = load ptr, ptr %_M_start, align 8
  %4 = load i64, ptr %__new_size.addr, align 8
  %add.ptr = getelementptr inbounds ptr, ptr %3, i64 %4
  call void @_ZNSt6vectorIPN3p2t5PointESaIS2_EE15_M_erase_at_endEPS2_(ptr noundef nonnull align 8 dereferenceable(24) %this1, ptr noundef %add.ptr) #14
  br label %if.end

if.end:                                           ; preds = %if.then5, %if.else
  br label %if.end6

if.end6:                                          ; preds = %if.end, %if.then
  ret void
}

; Function Attrs: mustprogress nounwind uwtable
define linkonce_odr hidden noundef i64 @_ZNKSt6vectorIN6Assimp7Blender8PointP2TESaIS2_EE4sizeEv(ptr noundef nonnull align 8 dereferenceable(24) %this) #0 comdat align 2 {
entry:
  %this.addr = alloca ptr, align 8
  store ptr %this, ptr %this.addr, align 8
  %this1 = load ptr, ptr %this.addr, align 8
  %_M_impl = getelementptr inbounds %"struct.std::_Vector_base", ptr %this1, i32 0, i32 0
  %_M_finish = getelementptr inbounds %"struct.std::_Vector_base<Assimp::Blender::PointP2T, std::allocator<Assimp::Blender::PointP2T>>::_Vector_impl_data", ptr %_M_impl, i32 0, i32 1
  %0 = load ptr, ptr %_M_finish, align 8
  %_M_impl2 = getelementptr inbounds %"struct.std::_Vector_base", ptr %this1, i32 0, i32 0
  %_M_start = getelementptr inbounds %"struct.std::_Vector_base<Assimp::Blender::PointP2T, std::allocator<Assimp::Blender::PointP2T>>::_Vector_impl_data", ptr %_M_impl2, i32 0, i32 0
  %1 = load ptr, ptr %_M_start, align 8
  %sub.ptr.lhs.cast = ptrtoint ptr %0 to i64
  %sub.ptr.rhs.cast = ptrtoint ptr %1 to i64
  %sub.ptr.sub = sub i64 %sub.ptr.lhs.cast, %sub.ptr.rhs.cast
  %sub.ptr.div = sdiv exact i64 %sub.ptr.sub, 64
  ret i64 %sub.ptr.div
}

; Function Attrs: mustprogress uwtable
define hidden void @_ZNK6Assimp21BlenderTessellatorP2T15ReferencePointsERSt6vectorINS_7Blender8PointP2TESaIS3_EERS1_IPN3p2t5PointESaIS9_EE(ptr noundef nonnull align 8 dereferenceable(8) %this, ptr noundef nonnull align 8 dereferenceable(24) %points, ptr noundef nonnull align 8 dereferenceable(24) %pointRefs) #2 align 2 {
entry:
  %this.addr = alloca ptr, align 8
  %points.addr = alloca ptr, align 8
  %pointRefs.addr = alloca ptr, align 8
  %i = alloca i64, align 8
  store ptr %this, ptr %this.addr, align 8
  store ptr %points, ptr %points.addr, align 8
  store ptr %pointRefs, ptr %pointRefs.addr, align 8
  %0 = load ptr, ptr %pointRefs.addr, align 8
  %1 = load ptr, ptr %points.addr, align 8
  %call = call noundef i64 @_ZNKSt6vectorIN6Assimp7Blender8PointP2TESaIS2_EE4sizeEv(ptr noundef nonnull align 8 dereferenceable(24) %1) #14
  call void @_ZNSt6vectorIPN3p2t5PointESaIS2_EE6resizeEm(ptr noundef nonnull align 8 dereferenceable(24) %0, i64 noundef %call)
  store i64 0, ptr %i, align 8
  br label %for.cond

for.cond:                                         ; preds = %for.inc, %entry
  %2 = load i64, ptr %i, align 8
  %3 = load ptr, ptr %points.addr, align 8
  %call2 = call noundef i64 @_ZNKSt6vectorIN6Assimp7Blender8PointP2TESaIS2_EE4sizeEv(ptr noundef nonnull align 8 dereferenceable(24) %3) #14
  %cmp = icmp ult i64 %2, %call2
  br i1 %cmp, label %for.body, label %for.end

for.body:                                         ; preds = %for.cond
  %4 = load ptr, ptr %points.addr, align 8
  %5 = load i64, ptr %i, align 8
  %call3 = call noundef nonnull align 8 dereferenceable(64) ptr @_ZNSt6vectorIN6Assimp7Blender8PointP2TESaIS2_EEixEm(ptr noundef nonnull align 8 dereferenceable(24) %4, i64 noundef %5) #14
  %point2D = getelementptr inbounds %"struct.Assimp::Blender::PointP2T", ptr %call3, i32 0, i32 1
  %6 = load ptr, ptr %pointRefs.addr, align 8
  %7 = load i64, ptr %i, align 8
  %call4 = call noundef nonnull align 8 dereferenceable(8) ptr @_ZNSt6vectorIPN3p2t5PointESaIS2_EEixEm(ptr noundef nonnull align 8 dereferenceable(24) %6, i64 noundef %7) #14
  store ptr %point2D, ptr %call4, align 8
  br label %for.inc

for.inc:                                          ; preds = %for.body
  %8 = load i64, ptr %i, align 8
  %inc = add i64 %8, 1
  store i64 %inc, ptr %i, align 8
  br label %for.cond, !llvm.loop !9

for.end:                                          ; preds = %for.cond
  ret void
}