; Function Attrs: mustprogress uwtable
define hidden void @_ZNK6Assimp21BlenderTessellatorP2T15ReferencePointsERSt6vectorINS_7Blender8PointP2TESaIS3_EERS1_IPN3p2t5PointESaIS9_EE(ptr nocapture noundef nonnull readnone align 8 dereferenceable(8) %this, ptr nocapture noundef nonnull readonly align 8 dereferenceable(24) %points, ptr noundef nonnull align 8 dereferenceable(24) %pointRefs) local_unnamed_addr #3 align 2 personality ptr @__gxx_personality_v0 {
entry:
  %_M_finish.i = getelementptr inbounds i8, ptr %points, i64 8
  %0 = load ptr, ptr %_M_finish.i, align 8
  %1 = load ptr, ptr %points, align 8
  %sub.ptr.lhs.cast.i = ptrtoint ptr %0 to i64
  %sub.ptr.rhs.cast.i = ptrtoint ptr %1 to i64
  %sub.ptr.sub.i = sub i64 %sub.ptr.lhs.cast.i, %sub.ptr.rhs.cast.i
  %sub.ptr.div.i = ashr exact i64 %sub.ptr.sub.i, 6
  %_M_finish.i.i = getelementptr inbounds i8, ptr %pointRefs, i64 8
  %2 = load ptr, ptr %_M_finish.i.i, align 8
  %3 = load ptr, ptr %pointRefs, align 8
  %sub.ptr.lhs.cast.i.i = ptrtoint ptr %2 to i64
  %sub.ptr.rhs.cast.i.i = ptrtoint ptr %3 to i64
  %sub.ptr.sub.i.i = sub i64 %sub.ptr.lhs.cast.i.i, %sub.ptr.rhs.cast.i.i
  %sub.ptr.div.i.i = ashr exact i64 %sub.ptr.sub.i.i, 3
  %cmp.i = icmp ult i64 %sub.ptr.div.i.i, %sub.ptr.div.i
  br i1 %cmp.i, label %if.then.i, label %if.else.i

if.then.i:                                        ; preds = %entry
  %sub.i = sub nsw i64 %sub.ptr.div.i, %sub.ptr.div.i.i
  tail call void @_ZNSt6vectorIPN3p2t5PointESaIS2_EE17_M_default_appendEm(ptr noundef nonnull align 8 dereferenceable(24) %pointRefs, i64 noundef %sub.i)
  br label %_ZNSt6vectorIPN3p2t5PointESaIS2_EE6resizeEm.exit

if.else.i:                                        ; preds = %entry
  %cmp4.i = icmp ugt i64 %sub.ptr.div.i.i, %sub.ptr.div.i
  br i1 %cmp4.i, label %if.then5.i, label %_ZNSt6vectorIPN3p2t5PointESaIS2_EE6resizeEm.exit

if.then5.i:                                       ; preds = %if.else.i
  %add.ptr.i = getelementptr inbounds ptr, ptr %3, i64 %sub.ptr.div.i
  %tobool.not.i.i = icmp eq ptr %2, %add.ptr.i
  br i1 %tobool.not.i.i, label %_ZNSt6vectorIPN3p2t5PointESaIS2_EE6resizeEm.exit, label %invoke.cont.i.i

invoke.cont.i.i:                                  ; preds = %if.then5.i
  store ptr %add.ptr.i, ptr %_M_finish.i.i, align 8
  br label %_ZNSt6vectorIPN3p2t5PointESaIS2_EE6resizeEm.exit

_ZNSt6vectorIPN3p2t5PointESaIS2_EE6resizeEm.exit: ; preds = %if.then.i, %if.else.i, %if.then5.i, %invoke.cont.i.i
  %4 = load ptr, ptr %_M_finish.i, align 8
  %5 = load ptr, ptr %points, align 8
  %cmp18.not = icmp eq ptr %4, %5
  br i1 %cmp18.not, label %for.end, label %for.body

for.body:                                         ; preds = %_ZNSt6vectorIPN3p2t5PointESaIS2_EE6resizeEm.exit, %for.body
  %6 = phi ptr [ %9, %for.body ], [ %5, %_ZNSt6vectorIPN3p2t5PointESaIS2_EE6resizeEm.exit ]
  %i.019 = phi i64 [ %inc, %for.body ], [ 0, %_ZNSt6vectorIPN3p2t5PointESaIS2_EE6resizeEm.exit ]
  %point2D = getelementptr inbounds %"struct.Assimp::Blender::PointP2T", ptr %6, i64 %i.019, i32 1
  %7 = load ptr, ptr %pointRefs, align 8
  %add.ptr.i13 = getelementptr inbounds ptr, ptr %7, i64 %i.019
  store ptr %point2D, ptr %add.ptr.i13, align 8
  %inc = add nuw i64 %i.019, 1
  %8 = load ptr, ptr %_M_finish.i, align 8
  %9 = load ptr, ptr %points, align 8
  %sub.ptr.lhs.cast.i8 = ptrtoint ptr %8 to i64
  %sub.ptr.rhs.cast.i9 = ptrtoint ptr %9 to i64
  %sub.ptr.sub.i10 = sub i64 %sub.ptr.lhs.cast.i8, %sub.ptr.rhs.cast.i9
  %sub.ptr.div.i11 = ashr exact i64 %sub.ptr.sub.i10, 6
  %cmp = icmp ult i64 %inc, %sub.ptr.div.i11
  br i1 %cmp, label %for.body, label %for.end, !llvm.loop !10

for.end:                                          ; preds = %for.body, %_ZNSt6vectorIPN3p2t5PointESaIS2_EE6resizeEm.exit
  ret void
}